; Function Attrs: mustprogress uwtable
define noundef nonnull align 8 dereferenceable(64) ptr @_ZNK6icu_7712ICUDataTable13getNoFallbackEPKcS2_S2_RNS_13UnicodeStringE(ptr noundef nonnull readonly align 8 captures(none) dereferenceable(232) %0, ptr noundef %1, ptr noundef %2, ptr noundef %3, ptr noundef nonnull align 8 dereferenceable(64) %4) local_unnamed_addr #1 align 2 {
  %6 = alloca i32, align 4
  %7 = alloca i32, align 4
  call void @llvm.lifetime.start.p0(i64 4, ptr nonnull %6) #19
  store i32 0, ptr %6, align 4, !tbaa !13
  call void @llvm.lifetime.start.p0(i64 4, ptr nonnull %7) #19
  store i32 0, ptr %7, align 4, !tbaa !12
  %8 = load ptr, ptr %0, align 8, !tbaa !15
  %9 = getelementptr inbounds nuw i8, ptr %0, i64 48
  %10 = load ptr, ptr %9, align 8, !tbaa !19
  %11 = call ptr @uloc_getTableStringWithFallback_77(ptr noundef %8, ptr noundef %10, ptr noundef %1, ptr noundef %2, ptr noundef %3, ptr noundef nonnull %7, ptr noundef nonnull %6)
  %12 = load i32, ptr %6, align 4, !tbaa !13
  %13 = icmp sgt i32 %12, 0
  br i1 %13, label %25, label %14

14:                                               ; preds = %5
  %15 = load i32, ptr %7, align 4, !tbaa !12
  call void @_ZN6icu_7713UnicodeString7unBogusEv(ptr noundef nonnull align 8 dereferenceable(64) %4)
  %16 = getelementptr inbounds nuw i8, ptr %4, i64 8
  %17 = load i16, ptr %16, align 8, !tbaa !20
  %18 = icmp slt i16 %17, 0
  %19 = ashr i16 %17, 5
  %20 = sext i16 %19 to i32
  %21 = getelementptr inbounds nuw i8, ptr %4, i64 12
  %22 = load i32, ptr %21, align 4
  %23 = select i1 %18, i32 %22, i32 %20
  %24 = call noundef nonnull align 8 dereferenceable(64) ptr @_ZN6icu_7713UnicodeString9doReplaceEiiPKDsii(ptr noundef nonnull align 8 dereferenceable(64) %4, i32 noundef 0, i32 noundef %23, ptr noundef %11, i32 noundef 0, i32 noundef %15)
  br label %26

25:                                               ; preds = %5
  call void @_ZN6icu_7713UnicodeString10setToBogusEv(ptr noundef nonnull align 8 dereferenceable(64) %4)
  br label %26

26:                                               ; preds = %25, %14
  %.0 = phi ptr [ %24, %14 ], [ %4, %25 ]
  call void @llvm.lifetime.end.p0(i64 4, ptr nonnull %7) #19
  call void @llvm.lifetime.end.p0(i64 4, ptr nonnull %6) #19
  ret ptr %.0
}